target datalayout = "e-m:e-p270:32:32-p271:32:32-p272:64:64-i64:64-i128:128-f80:128-n8:16:32:64-S128"
target triple = "x86_64-pc-linux-gnu"

%struct.AV1PixelRect = type { i32, i32, i32, i32 }
%struct.RestorationInfo = type { i32, i32, i32, i32, i32, ptr, %struct.RestorationStripeBoundaries, i32 }
%struct.RestorationStripeBoundaries = type { ptr, ptr, i32, i32 }
%struct.RestorationUnitInfo = type { i32, [12 x i8], %struct.WienerInfo, %struct.SgrprojInfo, [4 x i8] }
%struct.WienerInfo = type { [8 x i16], [8 x i16] }
%struct.SgrprojInfo = type { i32, [2 x i32] }
%struct.FilterFrameCtxt = type { ptr, i32, i32, i32, i32, i32, ptr, ptr, i32, i32, %struct.AV1PixelRect }

; Function Attrs: nounwind uwtable
define internal void @filter_frame_on_unit(ptr noundef %0, ptr noundef %1, i32 noundef %2, ptr noundef %3, ptr noundef %4, ptr noundef %5) #0 {
  %7 = alloca ptr, align 8
  %8 = alloca ptr, align 8
  %9 = alloca i32, align 4
  %10 = alloca ptr, align 8
  %11 = alloca ptr, align 8
  %12 = alloca ptr, align 8
  %13 = alloca ptr, align 8
  %14 = alloca ptr, align 8
  store ptr %0, ptr %7, align 8
  store ptr %1, ptr %8, align 8
  store i32 %2, ptr %9, align 4
  store ptr %3, ptr %10, align 8
  store ptr %4, ptr %11, align 8
  store ptr %5, ptr %12, align 8
  %15 = load ptr, ptr %10, align 8
  store ptr %15, ptr %13, align 8
  %16 = load ptr, ptr %13, align 8
  %17 = getelementptr inbounds nuw %struct.FilterFrameCtxt, ptr %16, i32 0, i32 0
  %18 = load ptr, ptr %17, align 8
  store ptr %18, ptr %14, align 8
  %19 = load ptr, ptr %7, align 8
  %20 = load ptr, ptr %14, align 8
  %21 = getelementptr inbounds nuw %struct.RestorationInfo, ptr %20, i32 0, i32 5
  %22 = load ptr, ptr %21, align 8
  %23 = load i32, ptr %9, align 4
  %24 = sext i32 %23 to i64
  %25 = getelementptr inbounds %struct.RestorationUnitInfo, ptr %22, i64 %24
  %26 = load ptr, ptr %14, align 8
  %27 = getelementptr inbounds nuw %struct.RestorationInfo, ptr %26, i32 0, i32 6
  %28 = load ptr, ptr %12, align 8
  %29 = load ptr, ptr %8, align 8
  %30 = load ptr, ptr %13, align 8
  %31 = getelementptr inbounds nuw %struct.FilterFrameCtxt, ptr %30, i32 0, i32 1
  %32 = load i32, ptr %31, align 8
  %33 = load ptr, ptr %13, align 8
  %34 = getelementptr inbounds nuw %struct.FilterFrameCtxt, ptr %33, i32 0, i32 2
  %35 = load i32, ptr %34, align 4
  %36 = load ptr, ptr %13, align 8
  %37 = getelementptr inbounds nuw %struct.FilterFrameCtxt, ptr %36, i32 0, i32 3
  %38 = load i32, ptr %37, align 8
  %39 = load ptr, ptr %13, align 8
  %40 = getelementptr inbounds nuw %struct.FilterFrameCtxt, ptr %39, i32 0, i32 4
  %41 = load i32, ptr %40, align 4
  %42 = load ptr, ptr %13, align 8
  %43 = getelementptr inbounds nuw %struct.FilterFrameCtxt, ptr %42, i32 0, i32 5
  %44 = load i32, ptr %43, align 8
  %45 = load ptr, ptr %13, align 8
  %46 = getelementptr inbounds nuw %struct.FilterFrameCtxt, ptr %45, i32 0, i32 6
  %47 = load ptr, ptr %46, align 8
  %48 = load ptr, ptr %13, align 8
  %49 = getelementptr inbounds nuw %struct.FilterFrameCtxt, ptr %48, i32 0, i32 8
  %50 = load i32, ptr %49, align 8
  %51 = load ptr, ptr %13, align 8
  %52 = getelementptr inbounds nuw %struct.FilterFrameCtxt, ptr %51, i32 0, i32 7
  %53 = load ptr, ptr %52, align 8
  %54 = load ptr, ptr %13, align 8
  %55 = getelementptr inbounds nuw %struct.FilterFrameCtxt, ptr %54, i32 0, i32 9
  %56 = load i32, ptr %55, align 4
  %57 = load ptr, ptr %11, align 8
  %58 = load ptr, ptr %14, align 8
  %59 = getelementptr inbounds nuw %struct.RestorationInfo, ptr %58, i32 0, i32 7
  %60 = load i32, ptr %59, align 8
  call void @av1_loop_restoration_filter_unit(ptr noundef %19, ptr noundef %25, ptr noundef %27, ptr noundef %28, ptr noundef %29, i32 noundef %32, i32 noundef %35, i32 noundef %38, i32 noundef %41, i32 noundef %44, ptr noundef %47, i32 noundef %50, ptr noundef %53, i32 noundef %56, ptr noundef %57, i32 noundef %60)
  ret void
}