; Function Attrs: nounwind uwtable
define internal void @filter_frame_on_unit(ptr noundef readonly captures(none) %0, ptr noundef readonly captures(none) %1, i32 noundef %2, ptr noundef readonly captures(none) %3, ptr noundef %4, ptr noundef captures(none) %5) #2 {
  %7 = load ptr, ptr %3, align 8
  %8 = getelementptr inbounds nuw i8, ptr %7, i64 24
  %9 = load ptr, ptr %8, align 8
  %10 = sext i32 %2 to i64
  %11 = getelementptr inbounds %struct.RestorationUnitInfo, ptr %9, i64 %10
  %12 = getelementptr inbounds nuw i8, ptr %7, i64 32
  %13 = getelementptr inbounds nuw i8, ptr %3, i64 8
  %14 = load i32, ptr %13, align 8
  %15 = getelementptr inbounds nuw i8, ptr %3, i64 12
  %16 = load i32, ptr %15, align 4
  %17 = getelementptr inbounds nuw i8, ptr %3, i64 16
  %18 = load i32, ptr %17, align 8
  %19 = getelementptr inbounds nuw i8, ptr %3, i64 20
  %20 = load i32, ptr %19, align 4
  %21 = getelementptr inbounds nuw i8, ptr %3, i64 24
  %22 = load i32, ptr %21, align 8
  %23 = getelementptr inbounds nuw i8, ptr %3, i64 32
  %24 = load ptr, ptr %23, align 8
  %25 = getelementptr inbounds nuw i8, ptr %3, i64 48
  %26 = load i32, ptr %25, align 8
  %27 = getelementptr inbounds nuw i8, ptr %3, i64 40
  %28 = load ptr, ptr %27, align 8
  %29 = getelementptr inbounds nuw i8, ptr %3, i64 52
  %30 = load i32, ptr %29, align 4
  %31 = getelementptr inbounds nuw i8, ptr %7, i64 56
  %32 = load i32, ptr %31, align 8
  tail call void @av1_loop_restoration_filter_unit(ptr noundef %0, ptr noundef %11, ptr noundef nonnull %12, ptr noundef %5, ptr noundef %1, i32 noundef %14, i32 noundef %16, i32 noundef %18, i32 noundef %20, i32 noundef %22, ptr noundef %24, i32 noundef %26, ptr noundef %28, i32 noundef %30, ptr noundef %4, i32 noundef %32)
  ret void
}